target datalayout = "e-m:e-p270:32:32-p271:32:32-p272:64:64-i64:64-i128:128-f80:128-n8:16:32:64-S128"
target triple = "x86_64-pc-linux-gnu"

%struct.PHP_GOST_CTX = type { [16 x i32], [2 x i32], i8, [32 x i8], ptr }

; Function Attrs: nounwind uwtable
define internal void @GostTransform(ptr noundef %0, ptr noundef %1) #0 {
  %3 = alloca ptr, align 8
  %4 = alloca ptr, align 8
  %5 = alloca i32, align 4
  %6 = alloca i32, align 4
  %7 = alloca [8 x i32], align 16
  %8 = alloca i32, align 4
  store ptr %0, ptr %3, align 8
  store ptr %1, ptr %4, align 8
  store i32 0, ptr %8, align 4
  store i32 0, ptr %5, align 4
  store i32 0, ptr %6, align 4
  br label %9

9:                                                ; preds = %96, %2
  %10 = load i32, ptr %5, align 4
  %11 = icmp slt i32 %10, 8
  br i1 %11, label %12, label %101

12:                                               ; preds = %9
  %13 = load ptr, ptr %4, align 8
  %14 = load i32, ptr %6, align 4
  %15 = sext i32 %14 to i64
  %16 = getelementptr inbounds i8, ptr %13, i64 %15
  %17 = load i8, ptr %16, align 1
  %18 = zext i8 %17 to i32
  %19 = load ptr, ptr %4, align 8
  %20 = load i32, ptr %6, align 4
  %21 = add nsw i32 %20, 1
  %22 = sext i32 %21 to i64
  %23 = getelementptr inbounds i8, ptr %19, i64 %22
  %24 = load i8, ptr %23, align 1
  %25 = zext i8 %24 to i32
  %26 = shl i32 %25, 8
  %27 = or i32 %18, %26
  %28 = load ptr, ptr %4, align 8
  %29 = load i32, ptr %6, align 4
  %30 = add nsw i32 %29, 2
  %31 = sext i32 %30 to i64
  %32 = getelementptr inbounds i8, ptr %28, i64 %31
  %33 = load i8, ptr %32, align 1
  %34 = zext i8 %33 to i32
  %35 = shl i32 %34, 16
  %36 = or i32 %27, %35
  %37 = load ptr, ptr %4, align 8
  %38 = load i32, ptr %6, align 4
  %39 = add nsw i32 %38, 3
  %40 = sext i32 %39 to i64
  %41 = getelementptr inbounds i8, ptr %37, i64 %40
  %42 = load i8, ptr %41, align 1
  %43 = zext i8 %42 to i32
  %44 = shl i32 %43, 24
  %45 = or i32 %36, %44
  %46 = load i32, ptr %5, align 4
  %47 = sext i32 %46 to i64
  %48 = getelementptr inbounds [8 x i32], ptr %7, i64 0, i64 %47
  store i32 %45, ptr %48, align 4
  %49 = load i32, ptr %5, align 4
  %50 = sext i32 %49 to i64
  %51 = getelementptr inbounds [8 x i32], ptr %7, i64 0, i64 %50
  %52 = load i32, ptr %51, align 4
  %53 = load i32, ptr %8, align 4
  %54 = add i32 %52, %53
  %55 = load ptr, ptr %3, align 8
  %56 = getelementptr inbounds %struct.PHP_GOST_CTX, ptr %55, i32 0, i32 0
  %57 = load i32, ptr %5, align 4
  %58 = add nsw i32 %57, 8
  %59 = sext i32 %58 to i64
  %60 = getelementptr inbounds [16 x i32], ptr %56, i64 0, i64 %59
  %61 = load i32, ptr %60, align 4
  %62 = add i32 %61, %54
  store i32 %62, ptr %60, align 4
  %63 = load ptr, ptr %3, align 8
  %64 = getelementptr inbounds %struct.PHP_GOST_CTX, ptr %63, i32 0, i32 0
  %65 = load i32, ptr %5, align 4
  %66 = add nsw i32 %65, 8
  %67 = sext i32 %66 to i64
  %68 = getelementptr inbounds [16 x i32], ptr %64, i64 0, i64 %67
  %69 = load i32, ptr %68, align 4
  %70 = load i32, ptr %5, align 4
  %71 = sext i32 %70 to i64
  %72 = getelementptr inbounds [8 x i32], ptr %7, i64 0, i64 %71
  %73 = load i32, ptr %72, align 4
  %74 = icmp ult i32 %69, %73
  br i1 %74, label %75, label %76

75:                                               ; preds = %12
  br label %94

76:                                               ; preds = %12
  %77 = load ptr, ptr %3, align 8
  %78 = getelementptr inbounds %struct.PHP_GOST_CTX, ptr %77, i32 0, i32 0
  %79 = load i32, ptr %5, align 4
  %80 = add nsw i32 %79, 8
  %81 = sext i32 %80 to i64
  %82 = getelementptr inbounds [16 x i32], ptr %78, i64 0, i64 %81
  %83 = load i32, ptr %82, align 4
  %84 = load i32, ptr %5, align 4
  %85 = sext i32 %84 to i64
  %86 = getelementptr inbounds [8 x i32], ptr %7, i64 0, i64 %85
  %87 = load i32, ptr %86, align 4
  %88 = icmp eq i32 %83, %87
  br i1 %88, label %89, label %91

89:                                               ; preds = %76
  %90 = load i32, ptr %8, align 4
  br label %92

91:                                               ; preds = %76
  br label %92

92:                                               ; preds = %91, %89
  %93 = phi i32 [ %90, %89 ], [ 0, %91 ]
  br label %94

94:                                               ; preds = %92, %75
  %95 = phi i32 [ 1, %75 ], [ %93, %92 ]
  store i32 %95, ptr %8, align 4
  br label %96

96:                                               ; preds = %94
  %97 = load i32, ptr %5, align 4
  %98 = add nsw i32 %97, 1
  store i32 %98, ptr %5, align 4
  %99 = load i32, ptr %6, align 4
  %100 = add nsw i32 %99, 4
  store i32 %100, ptr %6, align 4
  br label %9

101:                                              ; preds = %9
  %102 = load ptr, ptr %3, align 8
  %103 = getelementptr inbounds [8 x i32], ptr %7, i64 0, i64 0
  call void @Gost(ptr noundef %102, ptr noundef %103)
  ret void
}

; Function Attrs: nounwind uwtable
define void @PHP_GOSTFinal(ptr noundef %0, ptr noundef %1) #0 {
  %3 = alloca ptr, align 8
  %4 = alloca ptr, align 8
  %5 = alloca i32, align 4
  %6 = alloca i32, align 4
  %7 = alloca [8 x i32], align 16
  store ptr %0, ptr %3, align 8
  store ptr %1, ptr %4, align 8
  call void @llvm.memset.p0.i64(ptr align 16 %7, i8 0, i64 32, i1 false)
  %8 = load ptr, ptr %4, align 8
  %9 = getelementptr inbounds %struct.PHP_GOST_CTX, ptr %8, i32 0, i32 2
  %10 = load i8, ptr %9, align 8
  %11 = icmp ne i8 %10, 0
  br i1 %11, label %12, label %17

12:                                               ; preds = %2
  %13 = load ptr, ptr %4, align 8
  %14 = load ptr, ptr %4, align 8
  %15 = getelementptr inbounds %struct.PHP_GOST_CTX, ptr %14, i32 0, i32 3
  %16 = getelementptr inbounds [32 x i8], ptr %15, i64 0, i64 0
  call void @GostTransform(ptr noundef %13, ptr noundef %16)
  br label %17

17:                                               ; preds = %12, %2
  %18 = getelementptr inbounds [8 x i32], ptr %7, i64 0, i64 0
  %19 = load ptr, ptr %4, align 8
  %20 = getelementptr inbounds %struct.PHP_GOST_CTX, ptr %19, i32 0, i32 1
  %21 = getelementptr inbounds [2 x i32], ptr %20, i64 0, i64 0
  call void @llvm.memcpy.p0.p0.i64(ptr align 16 %18, ptr align 8 %21, i64 8, i1 false)
  %22 = load ptr, ptr %4, align 8
  %23 = getelementptr inbounds [8 x i32], ptr %7, i64 0, i64 0
  call void @Gost(ptr noundef %22, ptr noundef %23)
  %24 = getelementptr inbounds [8 x i32], ptr %7, i64 0, i64 0
  %25 = load ptr, ptr %4, align 8
  %26 = getelementptr inbounds %struct.PHP_GOST_CTX, ptr %25, i32 0, i32 0
  %27 = getelementptr inbounds [16 x i32], ptr %26, i64 0, i64 8
  call void @llvm.memcpy.p0.p0.i64(ptr align 16 %24, ptr align 8 %27, i64 32, i1 false)
  %28 = load ptr, ptr %4, align 8
  %29 = getelementptr inbounds [8 x i32], ptr %7, i64 0, i64 0
  call void @Gost(ptr noundef %28, ptr noundef %29)
  store i32 0, ptr %5, align 4
  store i32 0, ptr %6, align 4
  br label %30

30:                                               ; preds = %88, %17
  %31 = load i32, ptr %6, align 4
  %32 = icmp ult i32 %31, 32
  br i1 %32, label %33, label %93

33:                                               ; preds = %30
  %34 = load ptr, ptr %4, align 8
  %35 = getelementptr inbounds %struct.PHP_GOST_CTX, ptr %34, i32 0, i32 0
  %36 = load i32, ptr %5, align 4
  %37 = zext i32 %36 to i64
  %38 = getelementptr inbounds [16 x i32], ptr %35, i64 0, i64 %37
  %39 = load i32, ptr %38, align 4
  %40 = and i32 %39, 255
  %41 = trunc i32 %40 to i8
  %42 = load ptr, ptr %3, align 8
  %43 = load i32, ptr %6, align 4
  %44 = zext i32 %43 to i64
  %45 = getelementptr inbounds i8, ptr %42, i64 %44
  store i8 %41, ptr %45, align 1
  %46 = load ptr, ptr %4, align 8
  %47 = getelementptr inbounds %struct.PHP_GOST_CTX, ptr %46, i32 0, i32 0
  %48 = load i32, ptr %5, align 4
  %49 = zext i32 %48 to i64
  %50 = getelementptr inbounds [16 x i32], ptr %47, i64 0, i64 %49
  %51 = load i32, ptr %50, align 4
  %52 = lshr i32 %51, 8
  %53 = and i32 %52, 255
  %54 = trunc i32 %53 to i8
  %55 = load ptr, ptr %3, align 8
  %56 = load i32, ptr %6, align 4
  %57 = add i32 %56, 1
  %58 = zext i32 %57 to i64
  %59 = getelementptr inbounds i8, ptr %55, i64 %58
  store i8 %54, ptr %59, align 1
  %60 = load ptr, ptr %4, align 8
  %61 = getelementptr inbounds %struct.PHP_GOST_CTX, ptr %60, i32 0, i32 0
  %62 = load i32, ptr %5, align 4
  %63 = zext i32 %62 to i64
  %64 = getelementptr inbounds [16 x i32], ptr %61, i64 0, i64 %63
  %65 = load i32, ptr %64, align 4
  %66 = lshr i32 %65, 16
  %67 = and i32 %66, 255
  %68 = trunc i32 %67 to i8
  %69 = load ptr, ptr %3, align 8
  %70 = load i32, ptr %6, align 4
  %71 = add i32 %70, 2
  %72 = zext i32 %71 to i64
  %73 = getelementptr inbounds i8, ptr %69, i64 %72
  store i8 %68, ptr %73, align 1
  %74 = load ptr, ptr %4, align 8
  %75 = getelementptr inbounds %struct.PHP_GOST_CTX, ptr %74, i32 0, i32 0
  %76 = load i32, ptr %5, align 4
  %77 = zext i32 %76 to i64
  %78 = getelementptr inbounds [16 x i32], ptr %75, i64 0, i64 %77
  %79 = load i32, ptr %78, align 4
  %80 = lshr i32 %79, 24
  %81 = and i32 %80, 255
  %82 = trunc i32 %81 to i8
  %83 = load ptr, ptr %3, align 8
  %84 = load i32, ptr %6, align 4
  %85 = add i32 %84, 3
  %86 = zext i32 %85 to i64
  %87 = getelementptr inbounds i8, ptr %83, i64 %86
  store i8 %82, ptr %87, align 1
  br label %88

88:                                               ; preds = %33
  %89 = load i32, ptr %5, align 4
  %90 = add i32 %89, 1
  store i32 %90, ptr %5, align 4
  %91 = load i32, ptr %6, align 4
  %92 = add i32 %91, 4
  store i32 %92, ptr %6, align 4
  br label %30

93:                                               ; preds = %30
  %94 = load ptr, ptr %4, align 8
  call void @explicit_bzero(ptr noundef %94, i64 noundef 120) #5
  ret void
}