; Function Attrs: nounwind uwtable
define void @PHP_GOSTFinal(ptr nocapture noundef writeonly %0, ptr noundef %1) #2 {
  %3 = alloca [8 x i32], align 16
  %4 = alloca [8 x i32], align 16
  call void @llvm.memset.p0.i64(ptr noundef nonnull align 16 dereferenceable(32) %4, i8 0, i64 32, i1 false)
  %5 = getelementptr inbounds i8, ptr %1, i64 72
  %6 = load i8, ptr %5, align 8
  %.not = icmp eq i8 %6, 0
  br i1 %.not, label %41, label %7

7:                                                ; preds = %2
  %8 = getelementptr inbounds i8, ptr %1, i64 73
  call void @llvm.lifetime.start.p0(i64 32, ptr nonnull %3)
  br label %9

9:                                                ; preds = %9, %7
  %indvars.iv30.i = phi i64 [ 0, %7 ], [ %indvars.iv.next31.i, %9 ]
  %indvars.iv.i = phi i64 [ 0, %7 ], [ %indvars.iv.next.i, %9 ]
  %.029.i = phi i32 [ 0, %7 ], [ %40, %9 ]
  %10 = getelementptr inbounds i8, ptr %8, i64 %indvars.iv.i
  %11 = load i8, ptr %10, align 1
  %12 = zext i8 %11 to i32
  %13 = or disjoint i64 %indvars.iv.i, 1
  %14 = getelementptr inbounds i8, ptr %8, i64 %13
  %15 = load i8, ptr %14, align 1
  %16 = zext i8 %15 to i32
  %17 = shl nuw nsw i32 %16, 8
  %18 = or disjoint i32 %17, %12
  %19 = or disjoint i64 %indvars.iv.i, 2
  %20 = getelementptr inbounds i8, ptr %8, i64 %19
  %21 = load i8, ptr %20, align 1
  %22 = zext i8 %21 to i32
  %23 = shl nuw nsw i32 %22, 16
  %24 = or disjoint i32 %18, %23
  %25 = or disjoint i64 %indvars.iv.i, 3
  %26 = getelementptr inbounds i8, ptr %8, i64 %25
  %27 = load i8, ptr %26, align 1
  %28 = zext i8 %27 to i32
  %29 = shl nuw i32 %28, 24
  %30 = or disjoint i32 %24, %29
  %31 = getelementptr inbounds [8 x i32], ptr %3, i64 0, i64 %indvars.iv30.i
  store i32 %30, ptr %31, align 4
  %32 = or disjoint i64 %indvars.iv30.i, 8
  %33 = getelementptr inbounds [16 x i32], ptr %1, i64 0, i64 %32
  %34 = load i32, ptr %33, align 4
  %35 = add i32 %34, %.029.i
  %36 = add i32 %35, %30
  store i32 %36, ptr %33, align 4
  %37 = icmp ult i32 %36, %30
  %38 = icmp eq i32 %35, 0
  %39 = select i1 %38, i32 %.029.i, i32 0
  %40 = select i1 %37, i32 1, i32 %39
  %indvars.iv.next31.i = add nuw nsw i64 %indvars.iv30.i, 1
  %indvars.iv.next.i = add nuw nsw i64 %indvars.iv.i, 4
  %exitcond.not.i = icmp eq i64 %indvars.iv.next31.i, 8
  br i1 %exitcond.not.i, label %GostTransform.exit, label %9

GostTransform.exit:                               ; preds = %9
  call fastcc void @Gost(ptr noundef nonnull %1, ptr noundef nonnull %3)
  call void @llvm.lifetime.end.p0(i64 32, ptr nonnull %3)
  br label %41

41:                                               ; preds = %GostTransform.exit, %2
  %42 = getelementptr inbounds i8, ptr %1, i64 64
  %43 = load i64, ptr %42, align 8
  store i64 %43, ptr %4, align 16
  call fastcc void @Gost(ptr noundef nonnull %1, ptr noundef nonnull %4)
  %44 = getelementptr inbounds i8, ptr %1, i64 32
  call void @llvm.memcpy.p0.p0.i64(ptr noundef nonnull align 16 dereferenceable(32) %4, ptr noundef nonnull align 8 dereferenceable(32) %44, i64 32, i1 false)
  call fastcc void @Gost(ptr noundef nonnull %1, ptr noundef nonnull %4)
  br label %45

45:                                               ; preds = %41, %45
  %indvars.iv29 = phi i64 [ 0, %41 ], [ %indvars.iv.next30, %45 ]
  %indvars.iv = phi i64 [ 0, %41 ], [ %indvars.iv.next, %45 ]
  %46 = getelementptr inbounds [16 x i32], ptr %1, i64 0, i64 %indvars.iv29
  %47 = load i32, ptr %46, align 4
  %48 = trunc i32 %47 to i8
  %49 = getelementptr inbounds i8, ptr %0, i64 %indvars.iv
  store i8 %48, ptr %49, align 1
  %50 = load i32, ptr %46, align 4
  %51 = lshr i32 %50, 8
  %52 = trunc i32 %51 to i8
  %53 = or disjoint i64 %indvars.iv, 1
  %54 = getelementptr inbounds i8, ptr %0, i64 %53
  store i8 %52, ptr %54, align 1
  %55 = load i32, ptr %46, align 4
  %56 = lshr i32 %55, 16
  %57 = trunc i32 %56 to i8
  %58 = or disjoint i64 %indvars.iv, 2
  %59 = getelementptr inbounds i8, ptr %0, i64 %58
  store i8 %57, ptr %59, align 1
  %60 = load i32, ptr %46, align 4
  %61 = lshr i32 %60, 24
  %62 = trunc i32 %61 to i8
  %63 = or disjoint i64 %indvars.iv, 3
  %64 = getelementptr inbounds i8, ptr %0, i64 %63
  store i8 %62, ptr %64, align 1
  %indvars.iv.next30 = add nuw nsw i64 %indvars.iv29, 1
  %indvars.iv.next = add nuw nsw i64 %indvars.iv, 4
  %exitcond.not = icmp eq i64 %indvars.iv.next30, 8
  br i1 %exitcond.not, label %65, label %45

65:                                               ; preds = %45
  tail call void @explicit_bzero(ptr noundef nonnull %1, i64 noundef 120) #8
  ret void
}